; Function Attrs: nounwind uwtable
define ptr @l_Lean_mkConstWithLevelParams___at_Lean_Elab_OpenDecl_elabOpenDecl___spec__25___rarg(ptr noundef %0, ptr noundef %1, ptr noundef %2, ptr noundef %3, ptr noundef %4, ptr noundef %5, ptr noundef %6) #0 {
  %8 = getelementptr inbounds nuw i8, ptr %0, i64 16
  %9 = load ptr, ptr %8, align 8, !tbaa !4
  %10 = ptrtoint ptr %9 to i64
  %11 = and i64 %10, 1
  %.not = icmp eq i64 %11, 0
  br i1 %.not, label %12, label %lean_inc.exit20

12:                                               ; preds = %7
  %.val.i = load i32, ptr %9, align 4, !tbaa !8
  %13 = icmp sgt i32 %.val.i, 0
  br i1 %13, label %14, label %16, !prof !11

14:                                               ; preds = %12
  %15 = add nuw i32 %.val.i, 1
  store i32 %15, ptr %9, align 4, !tbaa !8
  br label %lean_inc.exit20

16:                                               ; preds = %12
  %.not.i = icmp eq i32 %.val.i, 0
  br i1 %.not.i, label %lean_inc.exit20, label %17

17:                                               ; preds = %16
  tail call void @lean_inc_ref_cold(ptr noundef nonnull %9) #6
  br label %lean_inc.exit20

lean_inc.exit20:                                  ; preds = %17, %16, %14, %7
  %18 = ptrtoint ptr %5 to i64
  %19 = and i64 %18, 1
  %.not27 = icmp eq i64 %19, 0
  br i1 %.not27, label %20, label %lean_inc.exit19

20:                                               ; preds = %lean_inc.exit20
  %.val.i21 = load i32, ptr %5, align 4, !tbaa !8
  %21 = icmp sgt i32 %.val.i21, 0
  br i1 %21, label %22, label %24, !prof !11

22:                                               ; preds = %20
  %23 = add nuw i32 %.val.i21, 1
  store i32 %23, ptr %5, align 4, !tbaa !8
  br label %lean_inc.exit19

24:                                               ; preds = %20
  %.not.i22 = icmp eq i32 %.val.i21, 0
  br i1 %.not.i22, label %lean_inc.exit19, label %25

25:                                               ; preds = %24
  tail call void @lean_inc_ref_cold(ptr noundef nonnull %5) #6
  br label %lean_inc.exit19

lean_inc.exit19:                                  ; preds = %25, %24, %22, %lean_inc.exit20
  %26 = ptrtoint ptr %0 to i64
  %27 = and i64 %26, 1
  %.not28 = icmp eq i64 %27, 0
  br i1 %.not28, label %28, label %lean_inc.exit

28:                                               ; preds = %lean_inc.exit19
  %.val.i24 = load i32, ptr %0, align 4, !tbaa !8
  %29 = icmp sgt i32 %.val.i24, 0
  br i1 %29, label %30, label %32, !prof !11

30:                                               ; preds = %28
  %31 = add nuw i32 %.val.i24, 1
  store i32 %31, ptr %0, align 4, !tbaa !8
  br label %lean_inc.exit

32:                                               ; preds = %28
  %.not.i25 = icmp eq i32 %.val.i24, 0
  br i1 %.not.i25, label %lean_inc.exit, label %33

33:                                               ; preds = %32
  tail call void @lean_inc_ref_cold(ptr noundef nonnull %0) #6
  br label %lean_inc.exit

lean_inc.exit:                                    ; preds = %33, %32, %30, %lean_inc.exit19
  %34 = tail call ptr @l_Lean_getConstVal___at_Lean_Elab_OpenDecl_elabOpenDecl___spec__26___rarg(ptr noundef nonnull %0, ptr noundef %1, ptr noundef %2, ptr noundef %3, ptr noundef %4, ptr noundef %5, ptr noundef %6)
  tail call void @lean_inc_heartbeat() #6
  %35 = tail call noalias ptr @mi_malloc_small(i64 noundef 40) #6
  %36 = icmp eq ptr %35, null
  br i1 %36, label %37, label %lean_alloc_closure.exit

37:                                               ; preds = %lean_inc.exit
  tail call void @lean_internal_panic_out_of_memory() #7
  unreachable

lean_alloc_closure.exit:                          ; preds = %lean_inc.exit
  %38 = getelementptr inbounds nuw i8, ptr %35, i64 4
  store i32 1, ptr %35, align 4, !tbaa !8
  store i32 -184549336, ptr %38, align 4
  %39 = getelementptr inbounds nuw i8, ptr %35, i64 8
  store ptr @l_Lean_mkConstWithLevelParams___at_Lean_Elab_OpenDecl_elabOpenDecl___spec__19___rarg___lambda__1, ptr %39, align 8, !tbaa !4
  %40 = getelementptr inbounds nuw i8, ptr %35, i64 16
  store i16 3, ptr %40, align 8, !tbaa !12
  %41 = getelementptr inbounds nuw i8, ptr %35, i64 18
  store i16 2, ptr %41, align 2, !tbaa !12
  %42 = getelementptr inbounds nuw i8, ptr %35, i64 24
  store ptr %5, ptr %42, align 8, !tbaa !4
  %43 = getelementptr inbounds nuw i8, ptr %35, i64 32
  store ptr %0, ptr %43, align 8, !tbaa !4
  %44 = tail call ptr @lean_apply_4(ptr noundef %9, ptr noundef nonnull inttoptr (i64 1 to ptr), ptr noundef nonnull inttoptr (i64 1 to ptr), ptr noundef %34, ptr noundef nonnull %35) #6
  ret ptr %44
}